---
triple:          'arm64-apple-darwin'
binary-path:     '/Users/gavin/Desktop/coding/output/error'
relocations:
  - { offsetInCU: 0x5411, offset: 0x5411, size: 0x8, addend: 0x0, symName: __ZNSt3__111__sift_downB7v160006INS_17_ClassicAlgPolicyERPFbRKNS_6vectorIdNS_9allocatorIdEEEES7_ENS_11__wrap_iterIPS5_EEEEvT1_OT0_NS_15iterator_traitsISE_E15difference_typeESE_, symObjAddr: 0x3560, symBinAddr: 0x100004B90, symSize: 0x334 }
  - { offsetInCU: 0x54F1, offset: 0x54F1, size: 0x8, addend: 0x0, symName: __ZNSt3__117__floyd_sift_downB7v160006INS_17_ClassicAlgPolicyERPFbRKNS_6vectorIdNS_9allocatorIdEEEES7_ENS_11__wrap_iterIPS5_EEEET1_SE_OT0_NS_15iterator_traitsISE_E15difference_typeE, symObjAddr: 0x40E0, symBinAddr: 0x100005710, symSize: 0x14C }
  - { offsetInCU: 0x5589, offset: 0x5589, size: 0x8, addend: 0x0, symName: __ZNSt3__111__introsortINS_17_ClassicAlgPolicyERPFbRKNS_6vectorIdNS_9allocatorIdEEEES7_EPS5_EEvT1_SC_T0_NS_15iterator_traitsISC_E15difference_typeE, symObjAddr: 0x4440, symBinAddr: 0x100005A70, symSize: 0x6F8 }
  - { offsetInCU: 0x56E4, offset: 0x56E4, size: 0x8, addend: 0x0, symName: __ZNSt3__118__insertion_sort_3B7v160006INS_17_ClassicAlgPolicyERPFbRKNS_6vectorIdNS_9allocatorIdEEEES7_EPS5_EEvT1_SC_T0_, symObjAddr: 0x4C6C, symBinAddr: 0x10000629C, symSize: 0x19C }
  - { offsetInCU: 0x57A7, offset: 0x57A7, size: 0x8, addend: 0x0, symName: __ZNSt3__111__sift_downB7v160006INS_17_ClassicAlgPolicyERPFbRKNS_6vectorIdNS_9allocatorIdEEEES7_EPS5_EEvT1_OT0_NS_15iterator_traitsISC_E15difference_typeESC_, symObjAddr: 0x573C, symBinAddr: 0x100006D6C, symSize: 0x288 }
  - { offsetInCU: 0x5854, offset: 0x5854, size: 0x8, addend: 0x0, symName: __ZNSt3__117__floyd_sift_downB7v160006INS_17_ClassicAlgPolicyERPFbRKNS_6vectorIdNS_9allocatorIdEEEES7_EPS5_EET1_SC_OT0_NS_15iterator_traitsISC_E15difference_typeE, symObjAddr: 0x5BA0, symBinAddr: 0x1000071D0, symSize: 0x10C }
  - { offsetInCU: 0x58EC, offset: 0x58EC, size: 0x8, addend: 0x0, symName: __ZNSt3__127__insertion_sort_incompleteIRPFbRKNS_6vectorIdNS_9allocatorIdEEEES6_EPS4_EEbT0_SB_T_, symObjAddr: 0x5048, symBinAddr: 0x100006678, symSize: 0x394 }
  - { offsetInCU: 0x66BE, offset: 0x66BE, size: 0x8, addend: 0x0, symName: __ZNSt3__14sortB7v160006INS_11__wrap_iterIPNS_6vectorIdNS_9allocatorIdEEEEEEPFbRKS5_S9_EEEvT_SC_T0_, symObjAddr: 0x4DC, symBinAddr: 0x100001B0C, symSize: 0x48 }
  - { offsetInCU: 0x6718, offset: 0x6718, size: 0x8, addend: 0x0, symName: __ZNSt3__1lsB7v160006IcNS_11char_traitsIcEEEERNS_13basic_ostreamIT_T0_EES7_RKNS_8__iom_t5E, symObjAddr: 0x584, symBinAddr: 0x100001BB4, symSize: 0x40 }
  - { offsetInCU: 0x73A9, offset: 0x73A9, size: 0x8, addend: 0x0, symName: __ZNSt3__15fixedB7v160006ERNS_8ios_baseE, symObjAddr: 0x604, symBinAddr: 0x100001C34, symSize: 0x30 }
  - { offsetInCU: 0x73D7, offset: 0x73D7, size: 0x8, addend: 0x0, symName: __ZNSt3__112setprecisionB7v160006Ei, symObjAddr: 0x634, symBinAddr: 0x100001C64, symSize: 0x2C }
  - { offsetInCU: 0x7403, offset: 0x7403, size: 0x8, addend: 0x0, symName: __ZNSt3__14endlB7v160006IcNS_11char_traitsIcEEEERNS_13basic_ostreamIT_T0_EES7_, symObjAddr: 0x68C, symBinAddr: 0x100001CBC, symSize: 0x58 }
  - { offsetInCU: 0x7443, offset: 0x7443, size: 0x8, addend: 0x0, symName: __ZNSt3__122__make_exception_guardB7v160006INS_6vectorIdNS_9allocatorIdEEE16__destroy_vectorEEENS_28__exception_guard_exceptionsIT_EES7_, symObjAddr: 0x90C, symBinAddr: 0x100001F3C, symSize: 0x40 }
  - { offsetInCU: 0x7478, offset: 0x7478, size: 0x8, addend: 0x0, symName: __ZNSt3__119__debug_db_insert_cB7v160006INS_6vectorIdNS_9allocatorIdEEEEEEvPT_, symObjAddr: 0x980, symBinAddr: 0x100001FB0, symSize: 0x10 }
  - { offsetInCU: 0x74A9, offset: 0x74A9, size: 0x8, addend: 0x0, symName: __ZNSt3__119__allocate_at_leastB7v160006INS_9allocatorIdEEEENS_19__allocation_resultINS_16allocator_traitsIT_E7pointerEEERS5_m, symObjAddr: 0xD24, symBinAddr: 0x100002354, symSize: 0x40 }
  - { offsetInCU: 0x74EC, offset: 0x74EC, size: 0x8, addend: 0x0, symName: __ZNSt3__13minB7v160006ImEERKT_S3_S3_, symObjAddr: 0xE60, symBinAddr: 0x100002490, symSize: 0x2C }
  - { offsetInCU: 0x7730, offset: 0x7730, size: 0x8, addend: 0x0, symName: __ZNSt3__13minB7v160006ImNS_6__lessImmEEEERKT_S5_S5_T0_, symObjAddr: 0xEEC, symBinAddr: 0x10000251C, symSize: 0x54 }
  - { offsetInCU: 0x77C5, offset: 0x77C5, size: 0x8, addend: 0x0, symName: __ZNSt3__120__throw_length_errorB7v160006EPKc, symObjAddr: 0xFC8, symBinAddr: 0x1000025F8, symSize: 0x64 }
  - { offsetInCU: 0x77ED, offset: 0x77ED, size: 0x8, addend: 0x0, symName: __ZNSt3__130__libcpp_is_constant_evaluatedB7v160006Ev, symObjAddr: 0x1164, symBinAddr: 0x100002794, symSize: 0xC }
  - { offsetInCU: 0x780A, offset: 0x780A, size: 0x8, addend: 0x0, symName: __ZNSt3__117__libcpp_allocateB7v160006Emm, symObjAddr: 0x1170, symBinAddr: 0x1000027A0, symSize: 0x28 }
  - { offsetInCU: 0x7847, offset: 0x7847, size: 0x8, addend: 0x0, symName: __ZNSt3__121__libcpp_operator_newB7v160006IJmEEEPvDpT_, symObjAddr: 0x1198, symBinAddr: 0x1000027C8, symSize: 0x24 }
  - { offsetInCU: 0x7880, offset: 0x7880, size: 0x8, addend: 0x0, symName: __ZNSt3__112__to_addressB7v160006IdEEPT_S2_, symObjAddr: 0x12B4, symBinAddr: 0x1000028E4, symSize: 0x14 }
  - { offsetInCU: 0x78B5, offset: 0x78B5, size: 0x8, addend: 0x0, symName: __ZNSt3__118__debug_db_erase_cB7v160006INS_6vectorIdNS_9allocatorIdEEEEEEvPT_, symObjAddr: 0x15DC, symBinAddr: 0x100002C0C, symSize: 0x10 }
  - { offsetInCU: 0x78E6, offset: 0x78E6, size: 0x8, addend: 0x0, symName: __ZNSt3__119__libcpp_deallocateB7v160006EPvmm, symObjAddr: 0x17C0, symBinAddr: 0x100002DF0, symSize: 0x30 }
  - { offsetInCU: 0x792E, offset: 0x792E, size: 0x8, addend: 0x0, symName: __ZNSt3__127__do_deallocate_handle_sizeB7v160006IJEEEvPvmDpT_, symObjAddr: 0x17F0, symBinAddr: 0x100002E20, symSize: 0x28 }
  - { offsetInCU: 0x796C, offset: 0x796C, size: 0x8, addend: 0x0, symName: __ZNSt3__124__libcpp_operator_deleteB7v160006IJPvEEEvDpT_, symObjAddr: 0x1818, symBinAddr: 0x100002E48, symSize: 0x24 }
  - { offsetInCU: 0x79A1, offset: 0x79A1, size: 0x8, addend: 0x0, symName: __ZNSt3__122__make_exception_guardB7v160006INS_6vectorINS1_IdNS_9allocatorIdEEEENS2_IS4_EEE16__destroy_vectorEEENS_28__exception_guard_exceptionsIT_EES9_, symObjAddr: 0x19A4, symBinAddr: 0x100002FD4, symSize: 0x40 }
  - { offsetInCU: 0x79D6, offset: 0x79D6, size: 0x8, addend: 0x0, symName: __ZNSt3__119__debug_db_insert_cB7v160006INS_6vectorINS1_IdNS_9allocatorIdEEEENS2_IS4_EEEEEEvPT_, symObjAddr: 0x1A18, symBinAddr: 0x100003048, symSize: 0x10 }
  - { offsetInCU: 0x7A07, offset: 0x7A07, size: 0x8, addend: 0x0, symName: __ZNSt3__119__allocate_at_leastB7v160006INS_9allocatorINS_6vectorIdNS1_IdEEEEEEEENS_19__allocation_resultINS_16allocator_traitsIT_E7pointerEEERS8_m, symObjAddr: 0x1DCC, symBinAddr: 0x1000033FC, symSize: 0x40 }
  - { offsetInCU: 0x7A4A, offset: 0x7A4A, size: 0x8, addend: 0x0, symName: __ZNSt3__112__to_addressB7v160006INS_6vectorIdNS_9allocatorIdEEEEEEPT_S6_, symObjAddr: 0x2144, symBinAddr: 0x100003774, symSize: 0x14 }
  - { offsetInCU: 0x7A7F, offset: 0x7A7F, size: 0x8, addend: 0x0, symName: __ZNSt3__130__uninitialized_allocator_copyB7v160006INS_9allocatorIdEEPdS3_S3_EET2_RT_T0_T1_S4_, symObjAddr: 0x2558, symBinAddr: 0x100003B88, symSize: 0xFC }
  - { offsetInCU: 0x7B1D, offset: 0x7B1D, size: 0x8, addend: 0x0, symName: __ZNSt3__122__make_exception_guardB7v160006INS_29_AllocatorDestroyRangeReverseINS_9allocatorIdEEPdEEEENS_28__exception_guard_exceptionsIT_EES7_, symObjAddr: 0x2654, symBinAddr: 0x100003C84, symSize: 0x4C }
  - { offsetInCU: 0x7B53, offset: 0x7B53, size: 0x8, addend: 0x0, symName: __ZNSt3__119__allocator_destroyB7v160006INS_9allocatorIdEENS_16reverse_iteratorIPdEES5_EEvRT_T0_T1_, symObjAddr: 0x28D4, symBinAddr: 0x100003F04, symSize: 0x70 }
  - { offsetInCU: 0x7BB6, offset: 0x7BB6, size: 0x8, addend: 0x0, symName: __ZNSt3__1neB7v160006IPdS1_EEbRKNS_16reverse_iteratorIT_EERKNS2_IT0_EE, symObjAddr: 0x2978, symBinAddr: 0x100003FA8, symSize: 0x48 }
  - { offsetInCU: 0x7C02, offset: 0x7C02, size: 0x8, addend: 0x0, symName: __ZNSt3__112__to_addressB7v160006INS_16reverse_iteratorIPdEEvEENS_5decayIDTclsr19__to_address_helperIT_EE6__callclsr3stdE7declvalIRKS5_EEEEE4typeES7_, symObjAddr: 0x29C0, symBinAddr: 0x100003FF0, symSize: 0x24 }
  - { offsetInCU: 0x7C61, offset: 0x7C61, size: 0x8, addend: 0x0, symName: __ZNSt3__118__debug_db_erase_cB7v160006INS_6vectorINS1_IdNS_9allocatorIdEEEENS2_IS4_EEEEEEvPT_, symObjAddr: 0x2CB4, symBinAddr: 0x1000042E4, symSize: 0x10 }
  - { offsetInCU: 0x7C92, offset: 0x7C92, size: 0x8, addend: 0x0, symName: __ZNSt3__111__sort_implB7v160006INS_17_ClassicAlgPolicyENS_11__wrap_iterIPNS_6vectorIdNS_9allocatorIdEEEEEEPFbRKS6_SA_EEEvT0_SD_RT1_, symObjAddr: 0x2F80, symBinAddr: 0x1000045B0, symSize: 0xC8 }
  - { offsetInCU: 0x7D39, offset: 0x7D39, size: 0x8, addend: 0x0, symName: __ZNSt3__123__debug_randomize_rangeB7v160006INS_17_ClassicAlgPolicyENS_11__wrap_iterIPNS_6vectorIdNS_9allocatorIdEEEEEES8_EEvT0_T1_, symObjAddr: 0x3048, symBinAddr: 0x100004678, symSize: 0x14 }
  - { offsetInCU: 0x7D8A, offset: 0x7D8A, size: 0x8, addend: 0x0, symName: __ZNSt3__114__partial_sortB7v160006INS_17_ClassicAlgPolicyEPFbRKNS_6vectorIdNS_9allocatorIdEEEES7_ENS_11__wrap_iterIPS5_EESC_EET1_SD_SD_T2_RT0_, symObjAddr: 0x305C, symBinAddr: 0x10000468C, symSize: 0xD8 }
  - { offsetInCU: 0x7E12, offset: 0x7E12, size: 0x8, addend: 0x0, symName: __ZNSt3__16__sortIRPFbRKNS_6vectorIdNS_9allocatorIdEEEES6_EPS4_EEvT0_SB_T_, symObjAddr: 0x3134, symBinAddr: 0x100004764, symSize: 0x68 }
  - { offsetInCU: 0x7EA2, offset: 0x7EA2, size: 0x8, addend: 0x0, symName: __ZNSt3__113__unwrap_iterB7v160006INS_11__wrap_iterIPNS_6vectorIdNS_9allocatorIdEEEEEENS_18__unwrap_iter_implIS7_Lb1EEELi0EEEDTclsrT0_8__unwrapclsr3stdE7declvalIT_EEEESB_, symObjAddr: 0x319C, symBinAddr: 0x1000047CC, symSize: 0x2C }
  - { offsetInCU: 0x7EE6, offset: 0x7EE6, size: 0x8, addend: 0x0, symName: __ZNSt3__1eqB7v160006IPNS_6vectorIdNS_9allocatorIdEEEEEEbRKNS_11__wrap_iterIT_EESA_, symObjAddr: 0x31C8, symBinAddr: 0x1000047F8, symSize: 0x48 }
  - { offsetInCU: 0x8041, offset: 0x8041, size: 0x8, addend: 0x0, symName: __ZNSt3__119__partial_sort_implB7v160006INS_17_ClassicAlgPolicyERPFbRKNS_6vectorIdNS_9allocatorIdEEEES7_ENS_11__wrap_iterIPS5_EESD_EET1_SE_SE_T2_OT0_, symObjAddr: 0x3230, symBinAddr: 0x100004860, symSize: 0x16C }
  - { offsetInCU: 0x80D8, offset: 0x80D8, size: 0x8, addend: 0x0, symName: __ZNSt3__111__make_heapB7v160006INS_17_ClassicAlgPolicyERPFbRKNS_6vectorIdNS_9allocatorIdEEEES7_ENS_11__wrap_iterIPS5_EEEEvT1_SE_OT0_, symObjAddr: 0x33B4, symBinAddr: 0x1000049E4, symSize: 0xD4 }
  - { offsetInCU: 0x817A, offset: 0x817A, size: 0x8, addend: 0x0, symName: __ZNSt3__1miB7v160006IPNS_6vectorIdNS_9allocatorIdEEEES5_EENS_11__wrap_iterIT_E15difference_typeERKS8_RKNS6_IT0_EE, symObjAddr: 0x3488, symBinAddr: 0x100004AB8, symSize: 0x48 }
  - { offsetInCU: 0x81C6, offset: 0x81C6, size: 0x8, addend: 0x0, symName: __ZNSt3__1neB7v160006IPNS_6vectorIdNS_9allocatorIdEEEEEEbRKNS_11__wrap_iterIT_EESA_, symObjAddr: 0x34D0, symBinAddr: 0x100004B00, symSize: 0x34 }
  - { offsetInCU: 0x8209, offset: 0x8209, size: 0x8, addend: 0x0, symName: __ZNSt3__111__sort_heapB7v160006INS_17_ClassicAlgPolicyERPFbRKNS_6vectorIdNS_9allocatorIdEEEES7_ENS_11__wrap_iterIPS5_EEEEvT1_SE_OT0_, symObjAddr: 0x38B4, symBinAddr: 0x100004EE4, symSize: 0x98 }
  - { offsetInCU: 0x829D, offset: 0x829D, size: 0x8, addend: 0x0, symName: __ZNSt3__19iter_swapB7v160006INS_11__wrap_iterIPNS_6vectorIdNS_9allocatorIdEEEEEES7_EEvT_T0_, symObjAddr: 0x39B8, symBinAddr: 0x100004FE8, symSize: 0x50 }
  - { offsetInCU: 0x82E5, offset: 0x82E5, size: 0x8, addend: 0x0, symName: __ZNSt3__14swapB7v160006IdNS_9allocatorIdEEEEvRNS_6vectorIT_T0_EES7_, symObjAddr: 0x3A08, symBinAddr: 0x100005038, symSize: 0x2C }
  - { offsetInCU: 0x8330, offset: 0x8330, size: 0x8, addend: 0x0, symName: __ZNSt3__14swapB7v160006IPdEEvRT_S3_, symObjAddr: 0x3AC4, symBinAddr: 0x1000050F4, symSize: 0x3C }
  - { offsetInCU: 0x8381, offset: 0x8381, size: 0x8, addend: 0x0, symName: __ZNSt3__116__swap_allocatorB7v160006INS_9allocatorIdEEEEvRT_S4_NS_17integral_constantIbLb0EEE, symObjAddr: 0x3B00, symBinAddr: 0x100005130, symSize: 0x14 }
  - { offsetInCU: 0x83C2, offset: 0x83C2, size: 0x8, addend: 0x0, symName: __ZNSt3__115__debug_db_swapB7v160006INS_6vectorIdNS_9allocatorIdEEEEEEvPT_S6_, symObjAddr: 0x3B14, symBinAddr: 0x100005144, symSize: 0x14 }
  - { offsetInCU: 0x8425, offset: 0x8425, size: 0x8, addend: 0x0, symName: __ZNSt3__125__debug_db_invalidate_allB7v160006INS_6vectorIdNS_9allocatorIdEEEEEEvPT_, symObjAddr: 0x3F04, symBinAddr: 0x100005534, symSize: 0x10 }
  - { offsetInCU: 0x8456, offset: 0x8456, size: 0x8, addend: 0x0, symName: __ZNSt3__110__pop_heapB7v160006INS_17_ClassicAlgPolicyEPFbRKNS_6vectorIdNS_9allocatorIdEEEES7_ENS_11__wrap_iterIPS5_EEEEvT1_SD_RT0_NS_15iterator_traitsISD_E15difference_typeE, symObjAddr: 0x3F4C, symBinAddr: 0x10000557C, symSize: 0x174 }
  - { offsetInCU: 0x84FF, offset: 0x84FF, size: 0x8, addend: 0x0, symName: __ZNSt3__19__sift_upB7v160006INS_17_ClassicAlgPolicyERPFbRKNS_6vectorIdNS_9allocatorIdEEEES7_ENS_11__wrap_iterIPS5_EEEEvT1_SE_OT0_NS_15iterator_traitsISE_E15difference_typeE, symObjAddr: 0x422C, symBinAddr: 0x10000585C, symSize: 0x1AC }
  - { offsetInCU: 0x85A0, offset: 0x85A0, size: 0x8, addend: 0x0, symName: __ZNSt3__17__log2iB7v160006IlEET_S1_, symObjAddr: 0x43D8, symBinAddr: 0x100005A08, symSize: 0x54 }
  - { offsetInCU: 0x860A, offset: 0x860A, size: 0x8, addend: 0x0, symName: __ZNSt3__112__libcpp_clzB7v160006Em, symObjAddr: 0x4B50, symBinAddr: 0x100006180, symSize: 0x1C }
  - { offsetInCU: 0x8636, offset: 0x8636, size: 0x8, addend: 0x0, symName: __ZNSt3__124__sort3_maybe_branchlessB7v160006INS_17_ClassicAlgPolicyERPFbRKNS_6vectorIdNS_9allocatorIdEEEES7_EPS5_EENS_9enable_ifIXntsr21__use_branchless_sortIT0_T1_EE5valueEvE4typeESE_SE_SE_SD_, symObjAddr: 0x4BA0, symBinAddr: 0x1000061D0, symSize: 0x3C }
  - { offsetInCU: 0x86A7, offset: 0x86A7, size: 0x8, addend: 0x0, symName: __ZNSt3__124__sort4_maybe_branchlessB7v160006INS_17_ClassicAlgPolicyERPFbRKNS_6vectorIdNS_9allocatorIdEEEES7_EPS5_EENS_9enable_ifIXntsr21__use_branchless_sortIT0_T1_EE5valueEvE4typeESE_SE_SE_SE_SD_, symObjAddr: 0x4BDC, symBinAddr: 0x10000620C, symSize: 0x44 }
  - { offsetInCU: 0x872C, offset: 0x872C, size: 0x8, addend: 0x0, symName: __ZNSt3__124__sort5_maybe_branchlessB7v160006INS_17_ClassicAlgPolicyERPFbRKNS_6vectorIdNS_9allocatorIdEEEES7_EPS5_EENS_9enable_ifIXntsr21__use_branchless_sortIT0_T1_EE5valueEvE4typeESE_SE_SE_SE_SE_SD_, symObjAddr: 0x4C20, symBinAddr: 0x100006250, symSize: 0x4C }
  - { offsetInCU: 0x87C0, offset: 0x87C0, size: 0x8, addend: 0x0, symName: __ZNSt3__114__partial_sortB7v160006INS_17_ClassicAlgPolicyERPFbRKNS_6vectorIdNS_9allocatorIdEEEES7_EPS5_SB_EET1_SC_SC_T2_RT0_, symObjAddr: 0x4E08, symBinAddr: 0x100006438, symSize: 0x94 }
  - { offsetInCU: 0x8848, offset: 0x8848, size: 0x8, addend: 0x0, symName: __ZNSt3__119__sort5_wrap_policyB7v160006INS_17_ClassicAlgPolicyERPFbRKNS_6vectorIdNS_9allocatorIdEEEES7_EPS5_EEjT1_SC_SC_SC_SC_T0_, symObjAddr: 0x4E9C, symBinAddr: 0x1000064CC, symSize: 0x54 }
  - { offsetInCU: 0x88EE, offset: 0x88EE, size: 0x8, addend: 0x0, symName: __ZNSt3__17__sort3B7v160006INS_17_ClassicAlgPolicyERPFbRKNS_6vectorIdNS_9allocatorIdEEEES7_EPS5_EEjT1_SC_SC_T0_, symObjAddr: 0x4EF0, symBinAddr: 0x100006520, symSize: 0x158 }
  - { offsetInCU: 0x896D, offset: 0x896D, size: 0x8, addend: 0x0, symName: __ZNSt3__19iter_swapB7v160006IPNS_6vectorIdNS_9allocatorIdEEEES5_EEvT_T0_, symObjAddr: 0x53F4, symBinAddr: 0x100006A24, symSize: 0x2C }
  - { offsetInCU: 0x89B5, offset: 0x89B5, size: 0x8, addend: 0x0, symName: __ZNSt3__17__sort4B7v160006INS_17_ClassicAlgPolicyERPFbRKNS_6vectorIdNS_9allocatorIdEEEES7_EPS5_EEjT1_SC_SC_SC_T0_, symObjAddr: 0x5420, symBinAddr: 0x100006A50, symSize: 0xF0 }
  - { offsetInCU: 0x8A42, offset: 0x8A42, size: 0x8, addend: 0x0, symName: __ZNSt3__123__debug_randomize_rangeB7v160006INS_17_ClassicAlgPolicyEPNS_6vectorIdNS_9allocatorIdEEEES6_EEvT0_T1_, symObjAddr: 0x5554, symBinAddr: 0x100006B84, symSize: 0x14 }
  - { offsetInCU: 0x8A93, offset: 0x8A93, size: 0x8, addend: 0x0, symName: __ZNSt3__119__partial_sort_implB7v160006INS_17_ClassicAlgPolicyERPFbRKNS_6vectorIdNS_9allocatorIdEEEES7_EPS5_SB_EET1_SC_SC_T2_OT0_, symObjAddr: 0x5568, symBinAddr: 0x100006B98, symSize: 0x114 }
  - { offsetInCU: 0x8B29, offset: 0x8B29, size: 0x8, addend: 0x0, symName: __ZNSt3__111__make_heapB7v160006INS_17_ClassicAlgPolicyERPFbRKNS_6vectorIdNS_9allocatorIdEEEES7_EPS5_EEvT1_SC_OT0_, symObjAddr: 0x567C, symBinAddr: 0x100006CAC, symSize: 0xC0 }
  - { offsetInCU: 0x8BCB, offset: 0x8BCB, size: 0x8, addend: 0x0, symName: __ZNSt3__111__sort_heapB7v160006INS_17_ClassicAlgPolicyERPFbRKNS_6vectorIdNS_9allocatorIdEEEES7_EPS5_EEvT1_SC_OT0_, symObjAddr: 0x59C4, symBinAddr: 0x100006FF4, symSize: 0x90 }
  - { offsetInCU: 0x8C5F, offset: 0x8C5F, size: 0x8, addend: 0x0, symName: __ZNSt3__110__pop_heapB7v160006INS_17_ClassicAlgPolicyEPFbRKNS_6vectorIdNS_9allocatorIdEEEES7_EPS5_EEvT1_SB_RT0_NS_15iterator_traitsISB_E15difference_typeE, symObjAddr: 0x5A54, symBinAddr: 0x100007084, symSize: 0x14C }
  - { offsetInCU: 0x8D07, offset: 0x8D07, size: 0x8, addend: 0x0, symName: __ZNSt3__19__sift_upB7v160006INS_17_ClassicAlgPolicyERPFbRKNS_6vectorIdNS_9allocatorIdEEEES7_EPS5_EEvT1_SC_OT0_NS_15iterator_traitsISC_E15difference_typeE, symObjAddr: 0x5CAC, symBinAddr: 0x1000072DC, symSize: 0x184 }
  - { offsetInCU: 0x8DA7, offset: 0x8DA7, size: 0x8, addend: 0x0, symName: __ZNSt3__17__sort5IRPFbRKNS_6vectorIdNS_9allocatorIdEEEES6_EPS4_EEjT0_SB_SB_SB_SB_T_, symObjAddr: 0x5E30, symBinAddr: 0x100007460, symSize: 0x13C }
  - { offsetInCU: 0x8EA5, offset: 0x8EA5, size: 0x8, addend: 0x0, symName: __ZNSt3__112__to_addressB7v160006INS_11__wrap_iterIPNS_6vectorIdNS_9allocatorIdEEEEEEvEENS_5decayIDTclsr19__to_address_helperIT_EE6__callclsr3stdE7declvalIRKS9_EEEEE4typeESB_, symObjAddr: 0x5F94, symBinAddr: 0x1000075C4, symSize: 0x24 }
  - { offsetInCU: 0x8F84, offset: 0x8F84, size: 0x8, addend: 0x0, symName: __ZNSt3__19use_facetB7v160006INS_5ctypeIcEEEERKT_RKNS_6localeE, symObjAddr: 0x60CC, symBinAddr: 0x1000076FC, symSize: 0x2C }
  - { offsetInCU: 0x9690, offset: 0x9690, size: 0x8, addend: 0x0, symName: __ZSt28__throw_bad_array_new_lengthB7v160006v, symObjAddr: 0x1130, symBinAddr: 0x100002760, symSize: 0x34 }
  - { offsetInCU: 0xBD96, offset: 0xBD96, size: 0x8, addend: 0x0, symName: __Z7compareRKNSt3__16vectorIdNS_9allocatorIdEEEES5_, symObjAddr: 0x0, symBinAddr: 0x100001630, symSize: 0x94 }
  - { offsetInCU: 0xBDD1, offset: 0xBDD1, size: 0x8, addend: 0x0, symName: __ZNKSt3__16vectorIdNS_9allocatorIdEEEixB7v160006Em, symObjAddr: 0x94, symBinAddr: 0x1000016C4, symSize: 0x24 }
  - { offsetInCU: 0xBE08, offset: 0xBE08, size: 0x8, addend: 0x0, symName: _main, symObjAddr: 0xB8, symBinAddr: 0x1000016E8, symSize: 0x32C }
  - { offsetInCU: 0xBEA3, offset: 0xBEA3, size: 0x8, addend: 0x0, symName: __ZNSt3__16vectorIdNS_9allocatorIdEEEC1Em, symObjAddr: 0x3E4, symBinAddr: 0x100001A14, symSize: 0x34 }
  - { offsetInCU: 0xBEDE, offset: 0xBEDE, size: 0x8, addend: 0x0, symName: __ZNSt3__16vectorINS0_IdNS_9allocatorIdEEEENS1_IS3_EEEC1EmRKS3_, symObjAddr: 0x418, symBinAddr: 0x100001A48, symSize: 0x3C }
  - { offsetInCU: 0xBF28, offset: 0xBF28, size: 0x8, addend: 0x0, symName: __ZNSt3__16vectorIdNS_9allocatorIdEEED1B7v160006Ev, symObjAddr: 0x454, symBinAddr: 0x100001A84, symSize: 0x2C }
  - { offsetInCU: 0xBF52, offset: 0xBF52, size: 0x8, addend: 0x0, symName: __ZNSt3__16vectorINS0_IdNS_9allocatorIdEEEENS1_IS3_EEEixB7v160006Em, symObjAddr: 0x48C, symBinAddr: 0x100001ABC, symSize: 0x2C }
  - { offsetInCU: 0xBF89, offset: 0xBF89, size: 0x8, addend: 0x0, symName: __ZNSt3__16vectorIdNS_9allocatorIdEEEixB7v160006Em, symObjAddr: 0x4B8, symBinAddr: 0x100001AE8, symSize: 0x24 }
  - { offsetInCU: 0xBFC0, offset: 0xBFC0, size: 0x8, addend: 0x0, symName: __ZNSt3__16vectorINS0_IdNS_9allocatorIdEEEENS1_IS3_EEE5beginB7v160006Ev, symObjAddr: 0x524, symBinAddr: 0x100001B54, symSize: 0x30 }
  - { offsetInCU: 0xBFE8, offset: 0xBFE8, size: 0x8, addend: 0x0, symName: __ZNSt3__16vectorINS0_IdNS_9allocatorIdEEEENS1_IS3_EEE3endB7v160006Ev, symObjAddr: 0x554, symBinAddr: 0x100001B84, symSize: 0x30 }
  - { offsetInCU: 0xC0C0, offset: 0xC0C0, size: 0x8, addend: 0x0, symName: __ZNSt3__113basic_ostreamIcNS_11char_traitsIcEEElsB7v160006EPFRNS_8ios_baseES5_E, symObjAddr: 0x5C4, symBinAddr: 0x100001BF4, symSize: 0x40 }
  - { offsetInCU: 0xC0F4, offset: 0xC0F4, size: 0x8, addend: 0x0, symName: __ZNSt3__113basic_ostreamIcNS_11char_traitsIcEEElsB7v160006EPFRS3_S4_E, symObjAddr: 0x660, symBinAddr: 0x100001C90, symSize: 0x2C }
  - { offsetInCU: 0xC128, offset: 0xC128, size: 0x8, addend: 0x0, symName: __ZNSt3__16vectorINS0_IdNS_9allocatorIdEEEENS1_IS3_EEED1B7v160006Ev, symObjAddr: 0x6E4, symBinAddr: 0x100001D14, symSize: 0x2C }
  - { offsetInCU: 0xC152, offset: 0xC152, size: 0x8, addend: 0x0, symName: __ZNSt3__18ios_base4setfB7v160006Ejj, symObjAddr: 0x710, symBinAddr: 0x100001D40, symSize: 0x5C }
  - { offsetInCU: 0xC1A7, offset: 0xC1A7, size: 0x8, addend: 0x0, symName: __ZNSt3__18ios_base6unsetfB7v160006Ej, symObjAddr: 0x76C, symBinAddr: 0x100001D9C, symSize: 0x28 }
  - { offsetInCU: 0xC1DE, offset: 0xC1DE, size: 0x8, addend: 0x0, symName: __ZNSt3__18__iom_t5C1B7v160006Ei, symObjAddr: 0x794, symBinAddr: 0x100001DC4, symSize: 0x34 }
  - { offsetInCU: 0xC216, offset: 0xC216, size: 0x8, addend: 0x0, symName: __ZNSt3__18__iom_t5C2B7v160006Ei, symObjAddr: 0x7C8, symBinAddr: 0x100001DF8, symSize: 0x20 }
  - { offsetInCU: 0xC24E, offset: 0xC24E, size: 0x8, addend: 0x0, symName: __ZNSt3__16vectorIdNS_9allocatorIdEEEC2Em, symObjAddr: 0x7E8, symBinAddr: 0x100001E18, symSize: 0xE8 }
  - { offsetInCU: 0xC2A8, offset: 0xC2A8, size: 0x8, addend: 0x0, symName: __ZNSt3__117__compressed_pairIPdNS_9allocatorIdEEEC1B7v160006IDnNS_18__default_init_tagEEEOT_OT0_, symObjAddr: 0x8D0, symBinAddr: 0x100001F00, symSize: 0x3C }
  - { offsetInCU: 0xC300, offset: 0xC300, size: 0x8, addend: 0x0, symName: __ZNSt3__16vectorIdNS_9allocatorIdEEE16__destroy_vectorC1ERS3_, symObjAddr: 0x94C, symBinAddr: 0x100001F7C, symSize: 0x34 }
  - { offsetInCU: 0xC339, offset: 0xC339, size: 0x8, addend: 0x0, symName: __ZNSt3__16vectorIdNS_9allocatorIdEEE11__vallocateB7v160006Em, symObjAddr: 0x990, symBinAddr: 0x100001FC0, symSize: 0xAC }
  - { offsetInCU: 0xC37D, offset: 0xC37D, size: 0x8, addend: 0x0, symName: __ZNSt3__16vectorIdNS_9allocatorIdEEE18__construct_at_endEm, symObjAddr: 0xA3C, symBinAddr: 0x10000206C, symSize: 0xD0 }
  - { offsetInCU: 0xC3EF, offset: 0xC3EF, size: 0x8, addend: 0x0, symName: __ZNSt3__128__exception_guard_exceptionsINS_6vectorIdNS_9allocatorIdEEE16__destroy_vectorEE10__completeB7v160006Ev, symObjAddr: 0xB0C, symBinAddr: 0x10000213C, symSize: 0x1C }
  - { offsetInCU: 0xC415, offset: 0xC415, size: 0x8, addend: 0x0, symName: __ZNSt3__128__exception_guard_exceptionsINS_6vectorIdNS_9allocatorIdEEE16__destroy_vectorEED1B7v160006Ev, symObjAddr: 0xB28, symBinAddr: 0x100002158, symSize: 0x2C }
  - { offsetInCU: 0xC43F, offset: 0xC43F, size: 0x8, addend: 0x0, symName: __ZNSt3__117__compressed_pairIPdNS_9allocatorIdEEEC2B7v160006IDnNS_18__default_init_tagEEEOT_OT0_, symObjAddr: 0xB54, symBinAddr: 0x100002184, symSize: 0x40 }
  - { offsetInCU: 0xC497, offset: 0xC497, size: 0x8, addend: 0x0, symName: __ZNSt3__122__compressed_pair_elemIPdLi0ELb0EEC2B7v160006IDnvEEOT_, symObjAddr: 0xB94, symBinAddr: 0x1000021C4, symSize: 0x1C }
  - { offsetInCU: 0xC4D9, offset: 0xC4D9, size: 0x8, addend: 0x0, symName: __ZNSt3__122__compressed_pair_elemINS_9allocatorIdEELi1ELb1EEC2B7v160006ENS_18__default_init_tagE, symObjAddr: 0xBB0, symBinAddr: 0x1000021E0, symSize: 0x2C }
  - { offsetInCU: 0xC50D, offset: 0xC50D, size: 0x8, addend: 0x0, symName: __ZNSt3__19allocatorIdEC2B7v160006Ev, symObjAddr: 0xBDC, symBinAddr: 0x10000220C, symSize: 0x2C }
  - { offsetInCU: 0xC537, offset: 0xC537, size: 0x8, addend: 0x0, symName: __ZNSt3__116__non_trivial_ifILb1ENS_9allocatorIdEEEC2B7v160006Ev, symObjAddr: 0xC08, symBinAddr: 0x100002238, symSize: 0x14 }
  - { offsetInCU: 0xC561, offset: 0xC561, size: 0x8, addend: 0x0, symName: __ZNSt3__128__exception_guard_exceptionsINS_6vectorIdNS_9allocatorIdEEE16__destroy_vectorEEC1B7v160006ES5_, symObjAddr: 0xC1C, symBinAddr: 0x10000224C, symSize: 0x34 }
  - { offsetInCU: 0xC599, offset: 0xC599, size: 0x8, addend: 0x0, symName: __ZNSt3__128__exception_guard_exceptionsINS_6vectorIdNS_9allocatorIdEEE16__destroy_vectorEEC2B7v160006ES5_, symObjAddr: 0xC50, symBinAddr: 0x100002280, symSize: 0x24 }
  - { offsetInCU: 0xC5D1, offset: 0xC5D1, size: 0x8, addend: 0x0, symName: __ZNSt3__16vectorIdNS_9allocatorIdEEE16__destroy_vectorC2ERS3_, symObjAddr: 0xC74, symBinAddr: 0x1000022A4, symSize: 0x20 }
  - { offsetInCU: 0xC60A, offset: 0xC60A, size: 0x8, addend: 0x0, symName: __ZNKSt3__16vectorIdNS_9allocatorIdEEE8max_sizeEv, symObjAddr: 0xC94, symBinAddr: 0x1000022C4, symSize: 0x74 }
  - { offsetInCU: 0xC632, offset: 0xC632, size: 0x8, addend: 0x0, symName: __ZNKSt3__16vectorIdNS_9allocatorIdEEE20__throw_length_errorB7v160006Ev, symObjAddr: 0xD08, symBinAddr: 0x100002338, symSize: 0x1C }
  - { offsetInCU: 0xC658, offset: 0xC658, size: 0x8, addend: 0x0, symName: __ZNSt3__16vectorIdNS_9allocatorIdEEE7__allocB7v160006Ev, symObjAddr: 0xD64, symBinAddr: 0x100002394, symSize: 0x28 }
  - { offsetInCU: 0xC67E, offset: 0xC67E, size: 0x8, addend: 0x0, symName: __ZNSt3__16vectorIdNS_9allocatorIdEEE9__end_capB7v160006Ev, symObjAddr: 0xD8C, symBinAddr: 0x1000023BC, symSize: 0x28 }
  - { offsetInCU: 0xC6A4, offset: 0xC6A4, size: 0x8, addend: 0x0, symName: __ZNKSt3__16vectorIdNS_9allocatorIdEEE14__annotate_newB7v160006Em, symObjAddr: 0xDB4, symBinAddr: 0x1000023E4, symSize: 0xAC }
  - { offsetInCU: 0xC6E3, offset: 0xC6E3, size: 0x8, addend: 0x0, symName: __ZNSt3__116allocator_traitsINS_9allocatorIdEEE8max_sizeB7v160006IS2_vEEmRKS2_, symObjAddr: 0xE8C, symBinAddr: 0x1000024BC, symSize: 0x24 }
  - { offsetInCU: 0xC711, offset: 0xC711, size: 0x8, addend: 0x0, symName: __ZNKSt3__16vectorIdNS_9allocatorIdEEE7__allocB7v160006Ev, symObjAddr: 0xEB0, symBinAddr: 0x1000024E0, symSize: 0x28 }
  - { offsetInCU: 0xC737, offset: 0xC737, size: 0x8, addend: 0x0, symName: __ZNSt3__114numeric_limitsIlE3maxB7v160006Ev, symObjAddr: 0xED8, symBinAddr: 0x100002508, symSize: 0x14 }
  - { offsetInCU: 0xC75F, offset: 0xC75F, size: 0x8, addend: 0x0, symName: __ZNKSt3__16__lessImmEclB7v160006ERKmS3_, symObjAddr: 0xF40, symBinAddr: 0x100002570, symSize: 0x34 }
  - { offsetInCU: 0xC7A1, offset: 0xC7A1, size: 0x8, addend: 0x0, symName: __ZNKSt3__19allocatorIdE8max_sizeB7v160006Ev, symObjAddr: 0xF74, symBinAddr: 0x1000025A4, symSize: 0x14 }
  - { offsetInCU: 0xC7C7, offset: 0xC7C7, size: 0x8, addend: 0x0, symName: __ZNKSt3__117__compressed_pairIPdNS_9allocatorIdEEE6secondB7v160006Ev, symObjAddr: 0xF88, symBinAddr: 0x1000025B8, symSize: 0x24 }
  - { offsetInCU: 0xC7ED, offset: 0xC7ED, size: 0x8, addend: 0x0, symName: __ZNKSt3__122__compressed_pair_elemINS_9allocatorIdEELi1ELb1EE5__getB7v160006Ev, symObjAddr: 0xFAC, symBinAddr: 0x1000025DC, symSize: 0x14 }
  - { offsetInCU: 0xC813, offset: 0xC813, size: 0x8, addend: 0x0, symName: __ZNSt3__123__libcpp_numeric_limitsIlLb1EE3maxB7v160006Ev, symObjAddr: 0xFC0, symBinAddr: 0x1000025F0, symSize: 0x8 }
  - { offsetInCU: 0xC827, offset: 0xC827, size: 0x8, addend: 0x0, symName: __ZNSt12length_errorC1B7v160006EPKc, symObjAddr: 0x102C, symBinAddr: 0x10000265C, symSize: 0x34 }
  - { offsetInCU: 0xC85F, offset: 0xC85F, size: 0x8, addend: 0x0, symName: __ZNSt12length_errorC2B7v160006EPKc, symObjAddr: 0x1060, symBinAddr: 0x100002690, symSize: 0x4C }
  - { offsetInCU: 0xC897, offset: 0xC897, size: 0x8, addend: 0x0, symName: __ZNSt3__19allocatorIdE8allocateB7v160006Em, symObjAddr: 0x10AC, symBinAddr: 0x1000026DC, symSize: 0x84 }
  - { offsetInCU: 0xC8CB, offset: 0xC8CB, size: 0x8, addend: 0x0, symName: __ZNSt3__117__compressed_pairIPdNS_9allocatorIdEEE6secondB7v160006Ev, symObjAddr: 0x11BC, symBinAddr: 0x1000027EC, symSize: 0x24 }
  - { offsetInCU: 0xC8F1, offset: 0xC8F1, size: 0x8, addend: 0x0, symName: __ZNSt3__122__compressed_pair_elemINS_9allocatorIdEELi1ELb1EE5__getB7v160006Ev, symObjAddr: 0x11E0, symBinAddr: 0x100002810, symSize: 0x14 }
  - { offsetInCU: 0xC917, offset: 0xC917, size: 0x8, addend: 0x0, symName: __ZNSt3__117__compressed_pairIPdNS_9allocatorIdEEE5firstB7v160006Ev, symObjAddr: 0x11F4, symBinAddr: 0x100002824, symSize: 0x24 }
  - { offsetInCU: 0xC93D, offset: 0xC93D, size: 0x8, addend: 0x0, symName: __ZNSt3__122__compressed_pair_elemIPdLi0ELb0EE5__getB7v160006Ev, symObjAddr: 0x1218, symBinAddr: 0x100002848, symSize: 0x14 }
  - { offsetInCU: 0xC963, offset: 0xC963, size: 0x8, addend: 0x0, symName: __ZNKSt3__16vectorIdNS_9allocatorIdEEE31__annotate_contiguous_containerB7v160006EPKvS5_S5_S5_, symObjAddr: 0x122C, symBinAddr: 0x10000285C, symSize: 0x20 }
  - { offsetInCU: 0xC9B9, offset: 0xC9B9, size: 0x8, addend: 0x0, symName: __ZNKSt3__16vectorIdNS_9allocatorIdEEE4dataB7v160006Ev, symObjAddr: 0x124C, symBinAddr: 0x10000287C, symSize: 0x28 }
  - { offsetInCU: 0xC9DF, offset: 0xC9DF, size: 0x8, addend: 0x0, symName: __ZNKSt3__16vectorIdNS_9allocatorIdEEE8capacityB7v160006Ev, symObjAddr: 0x1274, symBinAddr: 0x1000028A4, symSize: 0x40 }
  - { offsetInCU: 0xCA05, offset: 0xCA05, size: 0x8, addend: 0x0, symName: __ZNKSt3__16vectorIdNS_9allocatorIdEEE9__end_capB7v160006Ev, symObjAddr: 0x12C8, symBinAddr: 0x1000028F8, symSize: 0x28 }
  - { offsetInCU: 0xCA2B, offset: 0xCA2B, size: 0x8, addend: 0x0, symName: __ZNKSt3__117__compressed_pairIPdNS_9allocatorIdEEE5firstB7v160006Ev, symObjAddr: 0x12F0, symBinAddr: 0x100002920, symSize: 0x24 }
  - { offsetInCU: 0xCA51, offset: 0xCA51, size: 0x8, addend: 0x0, symName: __ZNKSt3__122__compressed_pair_elemIPdLi0ELb0EE5__getB7v160006Ev, symObjAddr: 0x1314, symBinAddr: 0x100002944, symSize: 0x14 }
  - { offsetInCU: 0xCA90, offset: 0xCA90, size: 0x8, addend: 0x0, symName: __ZNSt3__16vectorIdNS_9allocatorIdEEE21_ConstructTransactionC1B7v160006ERS3_m, symObjAddr: 0x1328, symBinAddr: 0x100002958, symSize: 0x3C }
  - { offsetInCU: 0xCAD8, offset: 0xCAD8, size: 0x8, addend: 0x0, symName: __ZNSt3__116allocator_traitsINS_9allocatorIdEEE9constructB7v160006IdJEvEEvRS2_PT_DpOT0_, symObjAddr: 0x1364, symBinAddr: 0x100002994, symSize: 0x2C }
  - { offsetInCU: 0xCB1A, offset: 0xCB1A, size: 0x8, addend: 0x0, symName: __ZNSt3__16vectorIdNS_9allocatorIdEEE21_ConstructTransactionD1B7v160006Ev, symObjAddr: 0x1390, symBinAddr: 0x1000029C0, symSize: 0x2C }
  - { offsetInCU: 0xCB44, offset: 0xCB44, size: 0x8, addend: 0x0, symName: __ZNSt3__16vectorIdNS_9allocatorIdEEE21_ConstructTransactionC2B7v160006ERS3_m, symObjAddr: 0x13BC, symBinAddr: 0x1000029EC, symSize: 0x44 }
  - { offsetInCU: 0xCB8C, offset: 0xCB8C, size: 0x8, addend: 0x0, symName: __ZNSt3__19allocatorIdE9constructB7v160006IdJEEEvPT_DpOT0_, symObjAddr: 0x1400, symBinAddr: 0x100002A30, symSize: 0x20 }
  - { offsetInCU: 0xCBCE, offset: 0xCBCE, size: 0x8, addend: 0x0, symName: __ZNSt3__16vectorIdNS_9allocatorIdEEE21_ConstructTransactionD2B7v160006Ev, symObjAddr: 0x1420, symBinAddr: 0x100002A50, symSize: 0x20 }
  - { offsetInCU: 0xCBF8, offset: 0xCBF8, size: 0x8, addend: 0x0, symName: __ZNSt3__128__exception_guard_exceptionsINS_6vectorIdNS_9allocatorIdEEE16__destroy_vectorEED2B7v160006Ev, symObjAddr: 0x1440, symBinAddr: 0x100002A70, symSize: 0x48 }
  - { offsetInCU: 0xCC22, offset: 0xCC22, size: 0x8, addend: 0x0, symName: __ZNSt3__16vectorIdNS_9allocatorIdEEE16__destroy_vectorclB7v160006Ev, symObjAddr: 0x1488, symBinAddr: 0x100002AB8, symSize: 0x9C }
  - { offsetInCU: 0xCC48, offset: 0xCC48, size: 0x8, addend: 0x0, symName: __ZNKSt3__16vectorIdNS_9allocatorIdEEE17__annotate_deleteB7v160006Ev, symObjAddr: 0x1524, symBinAddr: 0x100002B54, symSize: 0xB8 }
  - { offsetInCU: 0xCC6E, offset: 0xCC6E, size: 0x8, addend: 0x0, symName: __ZNSt3__16vectorIdNS_9allocatorIdEEE7__clearB7v160006Ev, symObjAddr: 0x15EC, symBinAddr: 0x100002C1C, symSize: 0x28 }
  - { offsetInCU: 0xCC94, offset: 0xCC94, size: 0x8, addend: 0x0, symName: __ZNSt3__116allocator_traitsINS_9allocatorIdEEE10deallocateB7v160006ERS2_Pdm, symObjAddr: 0x1614, symBinAddr: 0x100002C44, symSize: 0x34 }
  - { offsetInCU: 0xCCD6, offset: 0xCCD6, size: 0x8, addend: 0x0, symName: __ZNKSt3__16vectorIdNS_9allocatorIdEEE4sizeB7v160006Ev, symObjAddr: 0x1648, symBinAddr: 0x100002C78, symSize: 0x28 }
  - { offsetInCU: 0xCCFC, offset: 0xCCFC, size: 0x8, addend: 0x0, symName: __ZNSt3__16vectorIdNS_9allocatorIdEEE22__base_destruct_at_endB7v160006EPd, symObjAddr: 0x1670, symBinAddr: 0x100002CA0, symSize: 0xA0 }
  - { offsetInCU: 0xCD40, offset: 0xCD40, size: 0x8, addend: 0x0, symName: __ZNSt3__116allocator_traitsINS_9allocatorIdEEE7destroyB7v160006IdvEEvRS2_PT_, symObjAddr: 0x1710, symBinAddr: 0x100002D40, symSize: 0x2C }
  - { offsetInCU: 0xCD7D, offset: 0xCD7D, size: 0x8, addend: 0x0, symName: __ZNSt3__19allocatorIdE7destroyB7v160006EPd, symObjAddr: 0x173C, symBinAddr: 0x100002D6C, symSize: 0x14 }
  - { offsetInCU: 0xCDB1, offset: 0xCDB1, size: 0x8, addend: 0x0, symName: __ZNSt3__19allocatorIdE10deallocateB7v160006EPdm, symObjAddr: 0x1750, symBinAddr: 0x100002D80, symSize: 0x70 }
  - { offsetInCU: 0xCDF3, offset: 0xCDF3, size: 0x8, addend: 0x0, symName: __ZNSt3__16vectorIdNS_9allocatorIdEEED2B7v160006Ev, symObjAddr: 0x183C, symBinAddr: 0x100002E6C, symSize: 0x3C }
  - { offsetInCU: 0xCE1D, offset: 0xCE1D, size: 0x8, addend: 0x0, symName: __ZNSt3__16vectorINS0_IdNS_9allocatorIdEEEENS1_IS3_EEEC2EmRKS3_, symObjAddr: 0x1878, symBinAddr: 0x100002EA8, symSize: 0xF0 }
  - { offsetInCU: 0xCE7C, offset: 0xCE7C, size: 0x8, addend: 0x0, symName: __ZNSt3__117__compressed_pairIPNS_6vectorIdNS_9allocatorIdEEEENS2_IS4_EEEC1B7v160006IDnNS_18__default_init_tagEEEOT_OT0_, symObjAddr: 0x1968, symBinAddr: 0x100002F98, symSize: 0x3C }
  - { offsetInCU: 0xCED4, offset: 0xCED4, size: 0x8, addend: 0x0, symName: __ZNSt3__16vectorINS0_IdNS_9allocatorIdEEEENS1_IS3_EEE16__destroy_vectorC1ERS5_, symObjAddr: 0x19E4, symBinAddr: 0x100003014, symSize: 0x34 }
  - { offsetInCU: 0xCF0D, offset: 0xCF0D, size: 0x8, addend: 0x0, symName: __ZNSt3__16vectorINS0_IdNS_9allocatorIdEEEENS1_IS3_EEE11__vallocateB7v160006Em, symObjAddr: 0x1A28, symBinAddr: 0x100003058, symSize: 0xB4 }
  - { offsetInCU: 0xCF51, offset: 0xCF51, size: 0x8, addend: 0x0, symName: __ZNSt3__16vectorINS0_IdNS_9allocatorIdEEEENS1_IS3_EEE18__construct_at_endEmRKS3_, symObjAddr: 0x1ADC, symBinAddr: 0x10000310C, symSize: 0xD8 }
  - { offsetInCU: 0xCFD2, offset: 0xCFD2, size: 0x8, addend: 0x0, symName: __ZNSt3__128__exception_guard_exceptionsINS_6vectorINS1_IdNS_9allocatorIdEEEENS2_IS4_EEE16__destroy_vectorEE10__completeB7v160006Ev, symObjAddr: 0x1BB4, symBinAddr: 0x1000031E4, symSize: 0x1C }
  - { offsetInCU: 0xCFF8, offset: 0xCFF8, size: 0x8, addend: 0x0, symName: __ZNSt3__128__exception_guard_exceptionsINS_6vectorINS1_IdNS_9allocatorIdEEEENS2_IS4_EEE16__destroy_vectorEED1B7v160006Ev, symObjAddr: 0x1BD0, symBinAddr: 0x100003200, symSize: 0x2C }
  - { offsetInCU: 0xD022, offset: 0xD022, size: 0x8, addend: 0x0, symName: __ZNSt3__117__compressed_pairIPNS_6vectorIdNS_9allocatorIdEEEENS2_IS4_EEEC2B7v160006IDnNS_18__default_init_tagEEEOT_OT0_, symObjAddr: 0x1BFC, symBinAddr: 0x10000322C, symSize: 0x40 }
  - { offsetInCU: 0xD07A, offset: 0xD07A, size: 0x8, addend: 0x0, symName: __ZNSt3__122__compressed_pair_elemIPNS_6vectorIdNS_9allocatorIdEEEELi0ELb0EEC2B7v160006IDnvEEOT_, symObjAddr: 0x1C3C, symBinAddr: 0x10000326C, symSize: 0x1C }
  - { offsetInCU: 0xD0BC, offset: 0xD0BC, size: 0x8, addend: 0x0, symName: __ZNSt3__122__compressed_pair_elemINS_9allocatorINS_6vectorIdNS1_IdEEEEEELi1ELb1EEC2B7v160006ENS_18__default_init_tagE, symObjAddr: 0x1C58, symBinAddr: 0x100003288, symSize: 0x2C }
  - { offsetInCU: 0xD0F0, offset: 0xD0F0, size: 0x8, addend: 0x0, symName: __ZNSt3__19allocatorINS_6vectorIdNS0_IdEEEEEC2B7v160006Ev, symObjAddr: 0x1C84, symBinAddr: 0x1000032B4, symSize: 0x2C }
  - { offsetInCU: 0xD11A, offset: 0xD11A, size: 0x8, addend: 0x0, symName: __ZNSt3__116__non_trivial_ifILb1ENS_9allocatorINS_6vectorIdNS1_IdEEEEEEEC2B7v160006Ev, symObjAddr: 0x1CB0, symBinAddr: 0x1000032E0, symSize: 0x14 }
  - { offsetInCU: 0xD144, offset: 0xD144, size: 0x8, addend: 0x0, symName: __ZNSt3__128__exception_guard_exceptionsINS_6vectorINS1_IdNS_9allocatorIdEEEENS2_IS4_EEE16__destroy_vectorEEC1B7v160006ES7_, symObjAddr: 0x1CC4, symBinAddr: 0x1000032F4, symSize: 0x34 }
  - { offsetInCU: 0xD17C, offset: 0xD17C, size: 0x8, addend: 0x0, symName: __ZNSt3__128__exception_guard_exceptionsINS_6vectorINS1_IdNS_9allocatorIdEEEENS2_IS4_EEE16__destroy_vectorEEC2B7v160006ES7_, symObjAddr: 0x1CF8, symBinAddr: 0x100003328, symSize: 0x24 }
  - { offsetInCU: 0xD1B4, offset: 0xD1B4, size: 0x8, addend: 0x0, symName: __ZNSt3__16vectorINS0_IdNS_9allocatorIdEEEENS1_IS3_EEE16__destroy_vectorC2ERS5_, symObjAddr: 0x1D1C, symBinAddr: 0x10000334C, symSize: 0x20 }
  - { offsetInCU: 0xD1ED, offset: 0xD1ED, size: 0x8, addend: 0x0, symName: __ZNKSt3__16vectorINS0_IdNS_9allocatorIdEEEENS1_IS3_EEE8max_sizeEv, symObjAddr: 0x1D3C, symBinAddr: 0x10000336C, symSize: 0x74 }
  - { offsetInCU: 0xD215, offset: 0xD215, size: 0x8, addend: 0x0, symName: __ZNKSt3__16vectorINS0_IdNS_9allocatorIdEEEENS1_IS3_EEE20__throw_length_errorB7v160006Ev, symObjAddr: 0x1DB0, symBinAddr: 0x1000033E0, symSize: 0x1C }
  - { offsetInCU: 0xD23B, offset: 0xD23B, size: 0x8, addend: 0x0, symName: __ZNSt3__16vectorINS0_IdNS_9allocatorIdEEEENS1_IS3_EEE7__allocB7v160006Ev, symObjAddr: 0x1E0C, symBinAddr: 0x10000343C, symSize: 0x28 }
  - { offsetInCU: 0xD261, offset: 0xD261, size: 0x8, addend: 0x0, symName: __ZNSt3__16vectorINS0_IdNS_9allocatorIdEEEENS1_IS3_EEE9__end_capB7v160006Ev, symObjAddr: 0x1E34, symBinAddr: 0x100003464, symSize: 0x28 }
  - { offsetInCU: 0xD287, offset: 0xD287, size: 0x8, addend: 0x0, symName: __ZNKSt3__16vectorINS0_IdNS_9allocatorIdEEEENS1_IS3_EEE14__annotate_newB7v160006Em, symObjAddr: 0x1E5C, symBinAddr: 0x10000348C, symSize: 0xC8 }
  - { offsetInCU: 0xD2C6, offset: 0xD2C6, size: 0x8, addend: 0x0, symName: __ZNSt3__116allocator_traitsINS_9allocatorINS_6vectorIdNS1_IdEEEEEEE8max_sizeB7v160006IS5_vEEmRKS5_, symObjAddr: 0x1F24, symBinAddr: 0x100003554, symSize: 0x24 }
  - { offsetInCU: 0xD2F4, offset: 0xD2F4, size: 0x8, addend: 0x0, symName: __ZNKSt3__16vectorINS0_IdNS_9allocatorIdEEEENS1_IS3_EEE7__allocB7v160006Ev, symObjAddr: 0x1F48, symBinAddr: 0x100003578, symSize: 0x28 }
  - { offsetInCU: 0xD31A, offset: 0xD31A, size: 0x8, addend: 0x0, symName: __ZNKSt3__19allocatorINS_6vectorIdNS0_IdEEEEE8max_sizeB7v160006Ev, symObjAddr: 0x1F70, symBinAddr: 0x1000035A0, symSize: 0x18 }
  - { offsetInCU: 0xD340, offset: 0xD340, size: 0x8, addend: 0x0, symName: __ZNKSt3__117__compressed_pairIPNS_6vectorIdNS_9allocatorIdEEEENS2_IS4_EEE6secondB7v160006Ev, symObjAddr: 0x1F88, symBinAddr: 0x1000035B8, symSize: 0x24 }
  - { offsetInCU: 0xD366, offset: 0xD366, size: 0x8, addend: 0x0, symName: __ZNKSt3__122__compressed_pair_elemINS_9allocatorINS_6vectorIdNS1_IdEEEEEELi1ELb1EE5__getB7v160006Ev, symObjAddr: 0x1FAC, symBinAddr: 0x1000035DC, symSize: 0x14 }
  - { offsetInCU: 0xD38C, offset: 0xD38C, size: 0x8, addend: 0x0, symName: __ZNSt3__19allocatorINS_6vectorIdNS0_IdEEEEE8allocateB7v160006Em, symObjAddr: 0x1FC0, symBinAddr: 0x1000035F0, symSize: 0x8C }
  - { offsetInCU: 0xD3C0, offset: 0xD3C0, size: 0x8, addend: 0x0, symName: __ZNSt3__117__compressed_pairIPNS_6vectorIdNS_9allocatorIdEEEENS2_IS4_EEE6secondB7v160006Ev, symObjAddr: 0x204C, symBinAddr: 0x10000367C, symSize: 0x24 }
  - { offsetInCU: 0xD3E6, offset: 0xD3E6, size: 0x8, addend: 0x0, symName: __ZNSt3__122__compressed_pair_elemINS_9allocatorINS_6vectorIdNS1_IdEEEEEELi1ELb1EE5__getB7v160006Ev, symObjAddr: 0x2070, symBinAddr: 0x1000036A0, symSize: 0x14 }
  - { offsetInCU: 0xD40C, offset: 0xD40C, size: 0x8, addend: 0x0, symName: __ZNSt3__117__compressed_pairIPNS_6vectorIdNS_9allocatorIdEEEENS2_IS4_EEE5firstB7v160006Ev, symObjAddr: 0x2084, symBinAddr: 0x1000036B4, symSize: 0x24 }
  - { offsetInCU: 0xD432, offset: 0xD432, size: 0x8, addend: 0x0, symName: __ZNSt3__122__compressed_pair_elemIPNS_6vectorIdNS_9allocatorIdEEEELi0ELb0EE5__getB7v160006Ev, symObjAddr: 0x20A8, symBinAddr: 0x1000036D8, symSize: 0x14 }
  - { offsetInCU: 0xD458, offset: 0xD458, size: 0x8, addend: 0x0, symName: __ZNKSt3__16vectorINS0_IdNS_9allocatorIdEEEENS1_IS3_EEE31__annotate_contiguous_containerB7v160006EPKvS7_S7_S7_, symObjAddr: 0x20BC, symBinAddr: 0x1000036EC, symSize: 0x20 }
  - { offsetInCU: 0xD4AE, offset: 0xD4AE, size: 0x8, addend: 0x0, symName: __ZNKSt3__16vectorINS0_IdNS_9allocatorIdEEEENS1_IS3_EEE4dataB7v160006Ev, symObjAddr: 0x20DC, symBinAddr: 0x10000370C, symSize: 0x28 }
  - { offsetInCU: 0xD4D4, offset: 0xD4D4, size: 0x8, addend: 0x0, symName: __ZNKSt3__16vectorINS0_IdNS_9allocatorIdEEEENS1_IS3_EEE8capacityB7v160006Ev, symObjAddr: 0x2104, symBinAddr: 0x100003734, symSize: 0x40 }
  - { offsetInCU: 0xD4FA, offset: 0xD4FA, size: 0x8, addend: 0x0, symName: __ZNKSt3__16vectorINS0_IdNS_9allocatorIdEEEENS1_IS3_EEE9__end_capB7v160006Ev, symObjAddr: 0x2158, symBinAddr: 0x100003788, symSize: 0x28 }
  - { offsetInCU: 0xD520, offset: 0xD520, size: 0x8, addend: 0x0, symName: __ZNKSt3__117__compressed_pairIPNS_6vectorIdNS_9allocatorIdEEEENS2_IS4_EEE5firstB7v160006Ev, symObjAddr: 0x2180, symBinAddr: 0x1000037B0, symSize: 0x24 }
  - { offsetInCU: 0xD546, offset: 0xD546, size: 0x8, addend: 0x0, symName: __ZNKSt3__122__compressed_pair_elemIPNS_6vectorIdNS_9allocatorIdEEEELi0ELb0EE5__getB7v160006Ev, symObjAddr: 0x21A4, symBinAddr: 0x1000037D4, symSize: 0x14 }
  - { offsetInCU: 0xD585, offset: 0xD585, size: 0x8, addend: 0x0, symName: __ZNSt3__16vectorINS0_IdNS_9allocatorIdEEEENS1_IS3_EEE21_ConstructTransactionC1B7v160006ERS5_m, symObjAddr: 0x21B8, symBinAddr: 0x1000037E8, symSize: 0x3C }
  - { offsetInCU: 0xD5CD, offset: 0xD5CD, size: 0x8, addend: 0x0, symName: __ZNSt3__116allocator_traitsINS_9allocatorINS_6vectorIdNS1_IdEEEEEEE9constructB7v160006IS4_JRKS4_EvEEvRS5_PT_DpOT0_, symObjAddr: 0x21F4, symBinAddr: 0x100003824, symSize: 0x34 }
  - { offsetInCU: 0xD624, offset: 0xD624, size: 0x8, addend: 0x0, symName: __ZNSt3__16vectorINS0_IdNS_9allocatorIdEEEENS1_IS3_EEE21_ConstructTransactionD1B7v160006Ev, symObjAddr: 0x2228, symBinAddr: 0x100003858, symSize: 0x2C }
  - { offsetInCU: 0xD64E, offset: 0xD64E, size: 0x8, addend: 0x0, symName: __ZNSt3__16vectorINS0_IdNS_9allocatorIdEEEENS1_IS3_EEE21_ConstructTransactionC2B7v160006ERS5_m, symObjAddr: 0x2254, symBinAddr: 0x100003884, symSize: 0x4C }
  - { offsetInCU: 0xD696, offset: 0xD696, size: 0x8, addend: 0x0, symName: __ZNSt3__19allocatorINS_6vectorIdNS0_IdEEEEE9constructB7v160006IS3_JRKS3_EEEvPT_DpOT0_, symObjAddr: 0x22A0, symBinAddr: 0x1000038D0, symSize: 0x30 }
  - { offsetInCU: 0xD6EC, offset: 0xD6EC, size: 0x8, addend: 0x0, symName: __ZNSt3__16vectorIdNS_9allocatorIdEEEC1ERKS3_, symObjAddr: 0x22D0, symBinAddr: 0x100003900, symSize: 0x34 }
  - { offsetInCU: 0xD727, offset: 0xD727, size: 0x8, addend: 0x0, symName: __ZNSt3__16vectorIdNS_9allocatorIdEEEC2ERKS3_, symObjAddr: 0x2304, symBinAddr: 0x100003934, symSize: 0x118 }
  - { offsetInCU: 0xD786, offset: 0xD786, size: 0x8, addend: 0x0, symName: __ZNSt3__116allocator_traitsINS_9allocatorIdEEE37select_on_container_copy_constructionB7v160006IS2_vvEES2_RKS2_, symObjAddr: 0x241C, symBinAddr: 0x100003A4C, symSize: 0x10 }
  - { offsetInCU: 0xD7BA, offset: 0xD7BA, size: 0x8, addend: 0x0, symName: __ZNSt3__117__compressed_pairIPdNS_9allocatorIdEEEC1B7v160006IDnS3_EEOT_OT0_, symObjAddr: 0x242C, symBinAddr: 0x100003A5C, symSize: 0x3C }
  - { offsetInCU: 0xD812, offset: 0xD812, size: 0x8, addend: 0x0, symName: __ZNSt3__16vectorIdNS_9allocatorIdEEE18__construct_at_endIPdLi0EEEvT_S6_m, symObjAddr: 0x2468, symBinAddr: 0x100003A98, symSize: 0x94 }
  - { offsetInCU: 0xD885, offset: 0xD885, size: 0x8, addend: 0x0, symName: __ZNSt3__117__compressed_pairIPdNS_9allocatorIdEEEC2B7v160006IDnS3_EEOT_OT0_, symObjAddr: 0x24FC, symBinAddr: 0x100003B2C, symSize: 0x44 }
  - { offsetInCU: 0xD8DD, offset: 0xD8DD, size: 0x8, addend: 0x0, symName: __ZNSt3__122__compressed_pair_elemINS_9allocatorIdEELi1ELb1EEC2B7v160006IS2_vEEOT_, symObjAddr: 0x2540, symBinAddr: 0x100003B70, symSize: 0x18 }
  - { offsetInCU: 0xD91F, offset: 0xD91F, size: 0x8, addend: 0x0, symName: __ZNSt3__129_AllocatorDestroyRangeReverseINS_9allocatorIdEEPdEC1B7v160006ERS2_RS3_S6_, symObjAddr: 0x26A0, symBinAddr: 0x100003CD0, symSize: 0x44 }
  - { offsetInCU: 0xD976, offset: 0xD976, size: 0x8, addend: 0x0, symName: __ZNSt3__116allocator_traitsINS_9allocatorIdEEE9constructB7v160006IdJRdEvEEvRS2_PT_DpOT0_, symObjAddr: 0x26E4, symBinAddr: 0x100003D14, symSize: 0x34 }
  - { offsetInCU: 0xD9CD, offset: 0xD9CD, size: 0x8, addend: 0x0, symName: __ZNSt3__128__exception_guard_exceptionsINS_29_AllocatorDestroyRangeReverseINS_9allocatorIdEEPdEEE10__completeB7v160006Ev, symObjAddr: 0x2718, symBinAddr: 0x100003D48, symSize: 0x1C }
  - { offsetInCU: 0xD9F3, offset: 0xD9F3, size: 0x8, addend: 0x0, symName: __ZNSt3__128__exception_guard_exceptionsINS_29_AllocatorDestroyRangeReverseINS_9allocatorIdEEPdEEED1B7v160006Ev, symObjAddr: 0x2734, symBinAddr: 0x100003D64, symSize: 0x2C }
  - { offsetInCU: 0xDA1D, offset: 0xDA1D, size: 0x8, addend: 0x0, symName: __ZNSt3__128__exception_guard_exceptionsINS_29_AllocatorDestroyRangeReverseINS_9allocatorIdEEPdEEEC1B7v160006ES5_, symObjAddr: 0x2760, symBinAddr: 0x100003D90, symSize: 0x34 }
  - { offsetInCU: 0xDA56, offset: 0xDA56, size: 0x8, addend: 0x0, symName: __ZNSt3__128__exception_guard_exceptionsINS_29_AllocatorDestroyRangeReverseINS_9allocatorIdEEPdEEEC2B7v160006ES5_, symObjAddr: 0x2794, symBinAddr: 0x100003DC4, symSize: 0x30 }
  - { offsetInCU: 0xDA8F, offset: 0xDA8F, size: 0x8, addend: 0x0, symName: __ZNSt3__129_AllocatorDestroyRangeReverseINS_9allocatorIdEEPdEC2B7v160006ERS2_RS3_S6_, symObjAddr: 0x27C4, symBinAddr: 0x100003DF4, symSize: 0x38 }
  - { offsetInCU: 0xDAE6, offset: 0xDAE6, size: 0x8, addend: 0x0, symName: __ZNSt3__19allocatorIdE9constructB7v160006IdJRdEEEvPT_DpOT0_, symObjAddr: 0x27FC, symBinAddr: 0x100003E2C, symSize: 0x28 }
  - { offsetInCU: 0xDB3C, offset: 0xDB3C, size: 0x8, addend: 0x0, symName: __ZNSt3__128__exception_guard_exceptionsINS_29_AllocatorDestroyRangeReverseINS_9allocatorIdEEPdEEED2B7v160006Ev, symObjAddr: 0x2824, symBinAddr: 0x100003E54, symSize: 0x48 }
  - { offsetInCU: 0xDB66, offset: 0xDB66, size: 0x8, addend: 0x0, symName: __ZNKSt3__129_AllocatorDestroyRangeReverseINS_9allocatorIdEEPdEclB7v160006Ev, symObjAddr: 0x286C, symBinAddr: 0x100003E9C, symSize: 0x68 }
  - { offsetInCU: 0xDB8C, offset: 0xDB8C, size: 0x8, addend: 0x0, symName: __ZNSt3__116reverse_iteratorIPdEC1B7v160006ES1_, symObjAddr: 0x2944, symBinAddr: 0x100003F74, symSize: 0x34 }
  - { offsetInCU: 0xDBC4, offset: 0xDBC4, size: 0x8, addend: 0x0, symName: __ZNSt3__116reverse_iteratorIPdEppB7v160006Ev, symObjAddr: 0x29E4, symBinAddr: 0x100004014, symSize: 0x20 }
  - { offsetInCU: 0xDBEA, offset: 0xDBEA, size: 0x8, addend: 0x0, symName: __ZNKSt3__116reverse_iteratorIPdE4baseB7v160006Ev, symObjAddr: 0x2A04, symBinAddr: 0x100004034, symSize: 0x18 }
  - { offsetInCU: 0xDC15, offset: 0xDC15, size: 0x8, addend: 0x0, symName: __ZNSt3__119__to_address_helperINS_16reverse_iteratorIPdEEvE6__callB7v160006ERKS3_, symObjAddr: 0x2A1C, symBinAddr: 0x10000404C, symSize: 0x4C }
  - { offsetInCU: 0xDC38, offset: 0xDC38, size: 0x8, addend: 0x0, symName: __ZNKSt3__116reverse_iteratorIPdEptB7v160006Ev, symObjAddr: 0x2A68, symBinAddr: 0x100004098, symSize: 0x24 }
  - { offsetInCU: 0xDC5E, offset: 0xDC5E, size: 0x8, addend: 0x0, symName: __ZNKSt3__116reverse_iteratorIPdEdeB7v160006Ev, symObjAddr: 0x2A8C, symBinAddr: 0x1000040BC, symSize: 0x28 }
  - { offsetInCU: 0xDC92, offset: 0xDC92, size: 0x8, addend: 0x0, symName: __ZNSt3__116reverse_iteratorIPdEC2B7v160006ES1_, symObjAddr: 0x2AB4, symBinAddr: 0x1000040E4, symSize: 0x28 }
  - { offsetInCU: 0xDCCA, offset: 0xDCCA, size: 0x8, addend: 0x0, symName: __ZNSt3__16vectorINS0_IdNS_9allocatorIdEEEENS1_IS3_EEE21_ConstructTransactionD2B7v160006Ev, symObjAddr: 0x2ADC, symBinAddr: 0x10000410C, symSize: 0x20 }
  - { offsetInCU: 0xDCF4, offset: 0xDCF4, size: 0x8, addend: 0x0, symName: __ZNSt3__128__exception_guard_exceptionsINS_6vectorINS1_IdNS_9allocatorIdEEEENS2_IS4_EEE16__destroy_vectorEED2B7v160006Ev, symObjAddr: 0x2AFC, symBinAddr: 0x10000412C, symSize: 0x48 }
  - { offsetInCU: 0xDD1E, offset: 0xDD1E, size: 0x8, addend: 0x0, symName: __ZNSt3__16vectorINS0_IdNS_9allocatorIdEEEENS1_IS3_EEE16__destroy_vectorclB7v160006Ev, symObjAddr: 0x2B44, symBinAddr: 0x100004174, symSize: 0x9C }
  - { offsetInCU: 0xDD44, offset: 0xDD44, size: 0x8, addend: 0x0, symName: __ZNKSt3__16vectorINS0_IdNS_9allocatorIdEEEENS1_IS3_EEE17__annotate_deleteB7v160006Ev, symObjAddr: 0x2BE0, symBinAddr: 0x100004210, symSize: 0xD4 }
  - { offsetInCU: 0xDD6A, offset: 0xDD6A, size: 0x8, addend: 0x0, symName: __ZNSt3__16vectorINS0_IdNS_9allocatorIdEEEENS1_IS3_EEE7__clearB7v160006Ev, symObjAddr: 0x2CC4, symBinAddr: 0x1000042F4, symSize: 0x28 }
  - { offsetInCU: 0xDD90, offset: 0xDD90, size: 0x8, addend: 0x0, symName: __ZNSt3__116allocator_traitsINS_9allocatorINS_6vectorIdNS1_IdEEEEEEE10deallocateB7v160006ERS5_PS4_m, symObjAddr: 0x2CEC, symBinAddr: 0x10000431C, symSize: 0x34 }
  - { offsetInCU: 0xDDD2, offset: 0xDDD2, size: 0x8, addend: 0x0, symName: __ZNKSt3__16vectorINS0_IdNS_9allocatorIdEEEENS1_IS3_EEE4sizeB7v160006Ev, symObjAddr: 0x2D20, symBinAddr: 0x100004350, symSize: 0x28 }
  - { offsetInCU: 0xDDF8, offset: 0xDDF8, size: 0x8, addend: 0x0, symName: __ZNSt3__16vectorINS0_IdNS_9allocatorIdEEEENS1_IS3_EEE22__base_destruct_at_endB7v160006EPS3_, symObjAddr: 0x2D48, symBinAddr: 0x100004378, symSize: 0xA0 }
  - { offsetInCU: 0xDE3C, offset: 0xDE3C, size: 0x8, addend: 0x0, symName: __ZNSt3__116allocator_traitsINS_9allocatorINS_6vectorIdNS1_IdEEEEEEE7destroyB7v160006IS4_vEEvRS5_PT_, symObjAddr: 0x2DE8, symBinAddr: 0x100004418, symSize: 0x2C }
  - { offsetInCU: 0xDE79, offset: 0xDE79, size: 0x8, addend: 0x0, symName: __ZNSt3__19allocatorINS_6vectorIdNS0_IdEEEEE7destroyB7v160006EPS3_, symObjAddr: 0x2E14, symBinAddr: 0x100004444, symSize: 0x28 }
  - { offsetInCU: 0xDEAD, offset: 0xDEAD, size: 0x8, addend: 0x0, symName: __ZNSt3__19allocatorINS_6vectorIdNS0_IdEEEEE10deallocateB7v160006EPS3_m, symObjAddr: 0x2E3C, symBinAddr: 0x10000446C, symSize: 0x74 }
  - { offsetInCU: 0xDEEF, offset: 0xDEEF, size: 0x8, addend: 0x0, symName: __ZNSt3__16vectorINS0_IdNS_9allocatorIdEEEENS1_IS3_EEED2B7v160006Ev, symObjAddr: 0x2EB0, symBinAddr: 0x1000044E0, symSize: 0x3C }
  - { offsetInCU: 0xDF19, offset: 0xDF19, size: 0x8, addend: 0x0, symName: __ZNSt3__16vectorINS0_IdNS_9allocatorIdEEEENS1_IS3_EEE11__make_iterB7v160006EPS3_, symObjAddr: 0x2EEC, symBinAddr: 0x10000451C, symSize: 0x34 }
  - { offsetInCU: 0xDF4E, offset: 0xDF4E, size: 0x8, addend: 0x0, symName: __ZNSt3__111__wrap_iterIPNS_6vectorIdNS_9allocatorIdEEEEEC1B7v160006EPKvS5_, symObjAddr: 0x2F20, symBinAddr: 0x100004550, symSize: 0x3C }
  - { offsetInCU: 0xDF94, offset: 0xDF94, size: 0x8, addend: 0x0, symName: __ZNSt3__111__wrap_iterIPNS_6vectorIdNS_9allocatorIdEEEEEC2B7v160006EPKvS5_, symObjAddr: 0x2F5C, symBinAddr: 0x10000458C, symSize: 0x24 }
  - { offsetInCU: 0xDFDA, offset: 0xDFDA, size: 0x8, addend: 0x0, symName: __ZNSt3__18_IterOpsINS_17_ClassicAlgPolicyEE4nextB7v160006INS_11__wrap_iterIPNS_6vectorIdNS_9allocatorIdEEEEEEEET_SB_SB_, symObjAddr: 0x3210, symBinAddr: 0x100004840, symSize: 0x20 }
  - { offsetInCU: 0xE010, offset: 0xE010, size: 0x8, addend: 0x0, symName: __ZNKSt3__111__wrap_iterIPNS_6vectorIdNS_9allocatorIdEEEEE4baseB7v160006Ev, symObjAddr: 0x339C, symBinAddr: 0x1000049CC, symSize: 0x18 }
  - { offsetInCU: 0xE036, offset: 0xE036, size: 0x8, addend: 0x0, symName: __ZNKSt3__111__wrap_iterIPNS_6vectorIdNS_9allocatorIdEEEEEdeB7v160006Ev, symObjAddr: 0x3504, symBinAddr: 0x100004B34, symSize: 0x18 }
  - { offsetInCU: 0xE05C, offset: 0xE05C, size: 0x8, addend: 0x0, symName: __ZNSt3__18_IterOpsINS_17_ClassicAlgPolicyEE9iter_swapB7v160006IRNS_11__wrap_iterIPNS_6vectorIdNS_9allocatorIdEEEEEESB_EEvOT_OT0_, symObjAddr: 0x351C, symBinAddr: 0x100004B4C, symSize: 0x44 }
  - { offsetInCU: 0xE09F, offset: 0xE09F, size: 0x8, addend: 0x0, symName: __ZNSt3__111__wrap_iterIPNS_6vectorIdNS_9allocatorIdEEEEEppB7v160006Ev, symObjAddr: 0x3894, symBinAddr: 0x100004EC4, symSize: 0x20 }
  - { offsetInCU: 0xE0C5, offset: 0xE0C5, size: 0x8, addend: 0x0, symName: __ZNKSt3__111__wrap_iterIPNS_6vectorIdNS_9allocatorIdEEEEEplB7v160006El, symObjAddr: 0x394C, symBinAddr: 0x100004F7C, symSize: 0x3C }
  - { offsetInCU: 0xE107, offset: 0xE107, size: 0x8, addend: 0x0, symName: __ZNSt3__111__wrap_iterIPNS_6vectorIdNS_9allocatorIdEEEEEpLB7v160006El, symObjAddr: 0x3988, symBinAddr: 0x100004FB8, symSize: 0x30 }
  - { offsetInCU: 0xE13B, offset: 0xE13B, size: 0x8, addend: 0x0, symName: __ZNSt3__16vectorIdNS_9allocatorIdEEE4swapERS3_, symObjAddr: 0x3A34, symBinAddr: 0x100005064, symSize: 0x90 }
  - { offsetInCU: 0xE172, offset: 0xE172, size: 0x8, addend: 0x0, symName: __ZNSt3__18_IterOpsINS_17_ClassicAlgPolicyEE11__iter_moveB7v160006IRNS_11__wrap_iterIPNS_6vectorIdNS_9allocatorIdEEEEEEEENS_9enable_ifIXsr12is_referenceIDTdeclsr3stdE7declvalIRT_EEEEE5valueEDTclsr3stdE4movedeclsr3stdE7declvalISE_EEEEE4typeEOSD_, symObjAddr: 0x3B28, symBinAddr: 0x100005158, symSize: 0x28 }
  - { offsetInCU: 0xE19E, offset: 0xE19E, size: 0x8, addend: 0x0, symName: __ZNSt3__16vectorIdNS_9allocatorIdEEEC1B7v160006EOS3_, symObjAddr: 0x3B50, symBinAddr: 0x100005180, symSize: 0x34 }
  - { offsetInCU: 0xE1D9, offset: 0xE1D9, size: 0x8, addend: 0x0, symName: __ZNSt3__16vectorIdNS_9allocatorIdEEEaSB7v160006EOS3_, symObjAddr: 0x3B84, symBinAddr: 0x1000051B4, symSize: 0x34 }
  - { offsetInCU: 0xE210, offset: 0xE210, size: 0x8, addend: 0x0, symName: __ZNSt3__18_IterOpsINS_17_ClassicAlgPolicyEE25__validate_iter_referenceB7v160006IRNS_11__wrap_iterIPNS_6vectorIdNS_9allocatorIdEEEEEEEEvv, symObjAddr: 0x3BB8, symBinAddr: 0x1000051E8, symSize: 0x4 }
  - { offsetInCU: 0xE22E, offset: 0xE22E, size: 0x8, addend: 0x0, symName: __ZNSt3__16vectorIdNS_9allocatorIdEEEC2B7v160006EOS3_, symObjAddr: 0x3BBC, symBinAddr: 0x1000051EC, symSize: 0xD0 }
  - { offsetInCU: 0xE269, offset: 0xE269, size: 0x8, addend: 0x0, symName: __ZNSt3__16vectorIdNS_9allocatorIdEEE13__move_assignERS3_NS_17integral_constantIbLb1EEE, symObjAddr: 0x3C8C, symBinAddr: 0x1000052BC, symSize: 0xA4 }
  - { offsetInCU: 0xE2AC, offset: 0xE2AC, size: 0x8, addend: 0x0, symName: __ZNSt3__16vectorIdNS_9allocatorIdEEE13__vdeallocateEv, symObjAddr: 0x3D30, symBinAddr: 0x100005360, symSize: 0x8C }
  - { offsetInCU: 0xE2D4, offset: 0xE2D4, size: 0x8, addend: 0x0, symName: __ZNSt3__16vectorIdNS_9allocatorIdEEE19__move_assign_allocB7v160006ERS3_, symObjAddr: 0x3DBC, symBinAddr: 0x1000053EC, symSize: 0x2C }
  - { offsetInCU: 0xE309, offset: 0xE309, size: 0x8, addend: 0x0, symName: __ZNSt3__16vectorIdNS_9allocatorIdEEE5clearB7v160006Ev, symObjAddr: 0x3DE8, symBinAddr: 0x100005418, symSize: 0x68 }
  - { offsetInCU: 0xE33E, offset: 0xE33E, size: 0x8, addend: 0x0, symName: __ZNKSt3__16vectorIdNS_9allocatorIdEEE17__annotate_shrinkB7v160006Em, symObjAddr: 0x3E50, symBinAddr: 0x100005480, symSize: 0xB4 }
  - { offsetInCU: 0xE373, offset: 0xE373, size: 0x8, addend: 0x0, symName: __ZNSt3__16vectorIdNS_9allocatorIdEEE19__move_assign_allocB7v160006ERS3_NS_17integral_constantIbLb1EEE, symObjAddr: 0x3F14, symBinAddr: 0x100005544, symSize: 0x38 }
  - { offsetInCU: 0xE3B4, offset: 0xE3B4, size: 0x8, addend: 0x0, symName: __ZNSt3__111__wrap_iterIPNS_6vectorIdNS_9allocatorIdEEEEEmmB7v160006Ev, symObjAddr: 0x40C0, symBinAddr: 0x1000056F0, symSize: 0x20 }
  - { offsetInCU: 0xE3F5, offset: 0xE3F5, size: 0x8, addend: 0x0, symName: __ZNSt3__116_UnwrapAlgPolicyIRPFbRKNS_6vectorIdNS_9allocatorIdEEEES6_EE10__get_compB7v160006ES9_, symObjAddr: 0x442C, symBinAddr: 0x100005A5C, symSize: 0x14 }
  - { offsetInCU: 0xE418, offset: 0xE418, size: 0x8, addend: 0x0, symName: __ZNSt3__18_IterOpsINS_17_ClassicAlgPolicyEE9iter_swapB7v160006IRPNS_6vectorIdNS_9allocatorIdEEEES9_EEvOT_OT0_, symObjAddr: 0x4B6C, symBinAddr: 0x10000619C, symSize: 0x34 }
  - { offsetInCU: 0xE45B, offset: 0xE45B, size: 0x8, addend: 0x0, symName: __ZNSt3__18_IterOpsINS_17_ClassicAlgPolicyEE11__iter_moveB7v160006IRPNS_6vectorIdNS_9allocatorIdEEEEEENS_9enable_ifIXsr12is_referenceIDTdeclsr3stdE7declvalIRT_EEEEE5valueEDTclsr3stdE4movedeclsr3stdE7declvalISC_EEEEE4typeEOSB_, symObjAddr: 0x5510, symBinAddr: 0x100006B40, symSize: 0x28 }
  - { offsetInCU: 0xE487, offset: 0xE487, size: 0x8, addend: 0x0, symName: __ZNSt3__18_IterOpsINS_17_ClassicAlgPolicyEE25__validate_iter_referenceB7v160006IRPNS_6vectorIdNS_9allocatorIdEEEEEEvv, symObjAddr: 0x5538, symBinAddr: 0x100006B68, symSize: 0x4 }
  - { offsetInCU: 0xE4A5, offset: 0xE4A5, size: 0x8, addend: 0x0, symName: __ZNSt3__18_IterOpsINS_17_ClassicAlgPolicyEE4nextB7v160006IPNS_6vectorIdNS_9allocatorIdEEEEEET_S9_S9_, symObjAddr: 0x553C, symBinAddr: 0x100006B6C, symSize: 0x18 }
  - { offsetInCU: 0xE4DB, offset: 0xE4DB, size: 0x8, addend: 0x0, symName: __ZNSt3__118__unwrap_iter_implINS_11__wrap_iterIPNS_6vectorIdNS_9allocatorIdEEEEEELb1EE8__unwrapB7v160006ES7_, symObjAddr: 0x5F6C, symBinAddr: 0x10000759C, symSize: 0x28 }
  - { offsetInCU: 0xE508, offset: 0xE508, size: 0x8, addend: 0x0, symName: __ZNSt3__119__to_address_helperINS_11__wrap_iterIPNS_6vectorIdNS_9allocatorIdEEEEEEvE6__callB7v160006ERKS7_, symObjAddr: 0x5FB8, symBinAddr: 0x1000075E8, symSize: 0x30 }
  - { offsetInCU: 0xE52B, offset: 0xE52B, size: 0x8, addend: 0x0, symName: __ZNSt3__114pointer_traitsINS_11__wrap_iterIPNS_6vectorIdNS_9allocatorIdEEEEEEE10to_addressB7v160006ES7_, symObjAddr: 0x5FE8, symBinAddr: 0x100007618, symSize: 0x2C }
  - { offsetInCU: 0xE54F, offset: 0xE54F, size: 0x8, addend: 0x0, symName: __ZNSt3__18ios_base9precisionB7v160006El, symObjAddr: 0x6014, symBinAddr: 0x100007644, symSize: 0x2C }
  - { offsetInCU: 0xE595, offset: 0xE595, size: 0x8, addend: 0x0, symName: __ZNKSt3__19basic_iosIcNS_11char_traitsIcEEE5widenB7v160006Ec, symObjAddr: 0x6040, symBinAddr: 0x100007670, symSize: 0x8C }
  - { offsetInCU: 0xE603, offset: 0xE603, size: 0x8, addend: 0x0, symName: __ZNKSt3__15ctypeIcE5widenB7v160006Ec, symObjAddr: 0x60F8, symBinAddr: 0x100007728, symSize: 0x38 }
...
